(dp0
((I1
I3
tp1
I0
tp2
F0.3169087497393844
s((I4
I19
tp3
I1
tp4
F-0.2901785714285714
s((I3
I7
tp5
I1
tp6
F0.023735165521549
s((I2
I15
tp7
I1
tp8
F-0.04278074866310161
s((I3
I12
tp9
I1
tp10
F0.22975206611570256
s((I6
I14
tp11
I1
tp12
F-0.05725190839694657
s((I3
I13
tp13
I0
tp14
F0.2087517934002865
s((I5
I6
tp15
I1
tp16
F-0.050767414403777966
s((I3
I9
tp17
I1
tp18
F0.13101449275362342
s((I6
I13
tp19
I0
tp20
F0.08065720687079916
s((I10
I10
tp21
I0
tp22
F-0.32503770739064913
s((I1
I13
tp23
I1
tp24
F0.23346116970278039
s((I4
I17
tp25
I0
tp26
F0.2415284787310747
s((I6
I18
tp27
I0
tp28
F0.41085972850678765
s((I5
I5
tp29
I0
tp30
F0.10621046377520695
s((I10
I14
tp31
I1
tp32
F-0.16452780519907925
s((I4
I9
tp33
I1
tp34
F0.1433020562986628
s((I9
I4
tp35
I0
tp36
F-0.22097789252864253
s((I3
I17
tp37
I0
tp38
F0.2899082568807348
s((I4
I13
tp39
I0
tp40
F0.13835716016476837
s((I8
I14
tp41
I0
tp42
F-0.11396226415094295
s((I5
I3
tp43
I0
tp44
F0.10183895235441574
s((I7
I10
tp45
I0
tp46
F-0.009373458312777493
s((I3
I18
tp47
I1
tp48
F-0.3538461538461539
s((I7
I20
tp49
I1
tp50
F-0.5178571428571425
s((I10
I13
tp51
I1
tp52
F-0.1063412508171717
s((I3
I19
tp53
I0
tp54
F0.6472914195334124
s((I6
I9
tp55
I1
tp56
F0.01606855918585965
s((I5
I7
tp57
I1
tp58
F-0.01924310455420145
s((I8
I5
tp59
I1
tp60
F-0.2678571428571433
s((I2
I4
tp61
I0
tp62
F0.2570539278706262
s((I10
I20
tp63
I0
tp64
F0.7407341727256626
s((I2
I6
tp65
I1
tp66
F0.02158730158730158
s((I6
I15
tp67
I1
tp68
F-0.025157232704402517
s((I8
I7
tp69
I1
tp70
F-0.16656787196206288
s((I5
I8
tp71
I1
tp72
F0.05266538214515103
s((I8
I2
tp73
I0
tp74
F-0.1258527255339502
s((I6
I11
tp75
I0
tp76
F0.06986301369863002
s((I3
I8
tp77
I1
tp78
F0.08214489446662859
s((I2
I4
tp79
I1
tp80
F-0.05988771054273235
s((I7
I17
tp81
I0
tp82
F0.14070543374642527
s((I7
I3
tp83
I0
tp84
F-0.024826085523062282
s((I5
I13
tp85
I1
tp86
F-0.029999999999999995
s((I4
I16
tp87
I0
tp88
F0.13072048814832224
s((I2
I16
tp89
I1
tp90
F-0.17834394904458603
s((I5
I10
tp91
I0
tp92
F0.11687150837988815
s((I9
I8
tp93
I1
tp94
F-0.1796679091833269
s((I4
I12
tp95
I0
tp96
F0.07777777777777777
s((I9
I13
tp97
I1
tp98
F-0.07326250553342181
s((I8
I13
tp99
I0
tp100
F-0.10979228486646891
s((I2
I8
tp101
I0
tp102
F0.2577815410668921
s((I5
I18
tp103
I1
tp104
F-0.25287356321839094
s((I5
I19
tp105
I0
tp106
F0.6378737541528247
s((I4
I15
tp107
I1
tp108
F-0.012987012987013005
s((I7
I15
tp109
I1
tp110
F-0.10793650793650791
s((I4
I14
tp111
I0
tp112
F0.15122937015830226
s((I9
I7
tp113
I1
tp114
F-0.22269161134580567
s((I2
I7
tp115
I1
tp116
F0.07283950617283962
s((I9
I21
tp117
I0
tp118
F0.933780055183286
s((I8
I1
tp119
I1
tp120
F-0.3781561949500878
s((I5
I16
tp121
I1
tp122
F-0.05660377358490562
s((I4
I2
tp123
I1
tp124
F-0.21008939974457222
s((I7
I8
tp125
I0
tp126
F-0.0207647335528527
s((I7
I9
tp127
I1
tp128
F-0.0030878544392057795
s((I5
I20
tp129
I0
tp130
F0.7704918032786896
s((I1
I5
tp131
I1
tp132
F0.04774714189643582
s((I6
I10
tp133
I0
tp134
F0.08276225619399057
s((I5
I12
tp135
I1
tp136
F0.1413741967375183
s((I10
I3
tp137
I0
tp138
F-0.30214925747227345
s((I8
I19
tp139
I0
tp140
F0.6115244852050541
s((I1
I15
tp141
I1
tp142
F0.16346153846153846
s((I7
I11
tp143
I1
tp144
F0.18683948155533442
s((I6
I8
tp145
I0
tp146
F0.06239055042406336
s((I4
I21
tp147
I1
tp148
F-0.6181818181818183
s((I8
I4
tp149
I0
tp150
F-0.11880971025841794
s((I10
I1
tp151
I0
tp152
F-0.29496034791506875
s((I4
I20
tp153
I0
tp154
F0.79136690647482
s((I5
I11
tp155
I0
tp156
F0.04347826086956522
s((I7
I2
tp157
I0
tp158
F-0.02715458503672682
s((I7
I12
tp159
I1
tp160
F0.08402389670456722
s((I1
I12
tp161
I0
tp162
F0.2226720647773279
s((I9
I1
tp163
I0
tp164
F-0.20745874587458732
s((I1
I20
tp165
I1
tp166
F-0.37735849056603776
s((I7
I14
tp167
I1
tp168
F-0.04431438127090305
s((I9
I6
tp169
I1
tp170
F-0.26407185628742547
s((I1
I16
tp171
I0
tp172
F0.340648379052369
s((I3
I15
tp173
I0
tp174
F0.21512027491408903
s((I6
I7
tp175
I1
tp176
F-0.0762094102054341
s((I8
I15
tp177
I1
tp178
F-0.2347417840375587
s((I6
I6
tp179
I0
tp180
F0.06695818529652918
s((I3
I5
tp181
I0
tp182
F0.19918032786885112
s((I9
I2
tp183
I0
tp184
F-0.2085346476863712
s((I2
I9
tp185
I0
tp186
F0.2513847050821118
s((I10
I8
tp187
I0
tp188
F-0.30851063829787184
s((I6
I2
tp189
I1
tp190
F-0.208724832214765
s((I8
I10
tp191
I1
tp192
F0.019692065700716785
s((I6
I5
tp193
I1
tp194
F-0.12327416173570027
s((I4
I18
tp195
I1
tp196
F-0.2714285714285712
s((I5
I21
tp197
I0
tp198
F0.934169278996865
s((I9
I20
tp199
I0
tp200
F0.7958195819581967
s((I6
I20
tp201
I1
tp202
F-0.38834951456310696
s((I6
I1
tp203
I0
tp204
F0.07281163869797339
s((I3
I6
tp205
I1
tp206
F-0.012330456226880405
s((I1
I14
tp207
I1
tp208
F0.26490066225165554
s((I3
I2
tp209
I0
tp210
F0.19731433269388815
s((I5
I1
tp211
I0
tp212
F0.11009303636876276
s((I3
I3
tp213
I1
tp214
F-0.07094594594594585
s((I1
I10
tp215
I0
tp216
F0.30938489748291426
s((I8
I21
tp217
I1
tp218
F-0.6823529411764705
s((I2
I18
tp219
I1
tp220
F-0.30208333333333337
s((I8
I20
tp221
I0
tp222
F0.8065036280569734
s((I5
I14
tp223
I1
tp224
F1.9081958235744878e-17
s((I3
I4
tp225
I0
tp226
F0.20147686471106224
s((I5
I15
tp227
I0
tp228
F0.1281708945260345
s((I10
I4
tp229
I1
tp230
F-0.3940972222222221
s((I1
I8
tp231
I0
tp232
F0.3107662730019235
s((I8
I16
tp233
I1
tp234
F-0.156849315068493
s((I2
I17
tp235
I0
tp236
F0.3500340831629175
s((I9
I19
tp237
I0
tp238
F0.5765487409238363
s((I8
I9
tp239
I1
tp240
F-0.05202078342304198
s((I4
I7
tp241
I0
tp242
F0.15117641152649133
s((I4
I10
tp243
I1
tp244
F0.19915238058875362
s((I1
I17
tp245
I0
tp246
F0.43889479277364507
s((I10
I2
tp247
I1
tp248
F-0.47942754919499
s((I10
I16
tp249
I0
tp250
F-0.27615062761506287
s((I7
I1
tp251
I1
tp252
F-0.3279009126466749
s((I7
I19
tp253
I0
tp254
F0.6082949308755762
s((I9
I3
tp255
I0
tp256
F-0.2106564309413838
s((I8
I11
tp257
I1
tp258
F0.11955779991811154
s((I9
I18
tp259
I0
tp260
F0.2816161616161625
s((I3
I14
tp261
I0
tp262
F0.1860940695296523
s((I2
I12
tp263
I1
tp264
F0.2980709396390793
s((I7
I13
tp265
I0
tp266
F-0.024087316522393758
s((I6
I21
tp267
I1
tp268
F-0.7272727272727273
s((I1
I19
tp269
I1
tp270
F-0.4025974025974025
s((I5
I9
tp271
I1
tp272
F0.07532149418248632
s((I8
I12
tp273
I0
tp274
F-0.21857923497267762
s((I10
I9
tp275
I0
tp276
F-0.30536378120021246
s((I2
I11
tp277
I0
tp278
F0.2847682119205299
s((I10
I7
tp279
I1
tp280
F-0.3452325035227808
s((I6
I17
tp281
I0
tp282
F0.17488006977758433
s((I2
I10
tp283
I1
tp284
F0.29398870247028097
s((I10
I6
tp285
I0
tp286
F-0.2940907158507474
s((I2
I19
tp287
I1
tp288
F-0.3263888888888888
s((I1
I11
tp289
I0
tp290
F0.4263565891472868
s((I10
I17
tp291
I1
tp292
F-0.3351387948544346
s((I10
I5
tp293
I1
tp294
F-0.37350054525627013
s((I8
I9
tp295
I0
tp296
F-0.11492890995260666
s((I7
I6
tp297
I1
tp298
F-0.16873889875666093
s((I8
I17
tp299
I1
tp300
F-0.2218430034129693
s((I9
I14
tp301
I1
tp302
F-0.11181739381681577
s((I7
I7
tp303
I0
tp304
F-0.028262568377181628
s((I9
I15
tp305
I0
tp306
F-0.22842639593908623
s((I1
I9
tp307
I0
tp308
F0.3231923317357782
s((I3
I20
tp309
I0
tp310
F0.7981651376146786
s((I3
I1
tp311
I1
tp312
F-0.21428571428571433
s((I2
I1
tp313
I0
tp314
F0.2505416652336897
s((I2
I21
tp315
I0
tp316
F0.9540740740740747
s((I9
I11
tp317
I1
tp318
F0.05815004519433583
s((I9
I12
tp319
I1
tp320
F-0.002942137953579663
s((I8
I18
tp321
I0
tp322
F0.3579730965129939
s((I10
I19
tp323
I0
tp324
F0.4646040234275538
s((I7
I4
tp325
I0
tp326
F-0.03686529098075586
s((I4
I1
tp327
I1
tp328
F-0.2104945717732205
s((I10
I11
tp329
I1
tp330
F-0.02901063337956534
s((I2
I13
tp331
I1
tp332
F0.20924967658473517
s((I4
I5
tp333
I0
tp334
F0.15316637209457554
s((I1
I6
tp335
I1
tp336
F0.048601864181091844
s((I1
I18
tp337
I1
tp338
F-0.15306122448979592
s((I8
I6
tp339
I0
tp340
F-0.12012323556226186
s((I4
I4
tp341
I1
tp342
F-0.14502529510961237
s((I7
I18
tp343
I0
tp344
F0.4152023692003939
s((I4
I3
tp345
I1
tp346
F-0.13650594865372606
s((I9
I16
tp347
I1
tp348
F-0.2223313227661662
s((I3
I11
tp349
I1
tp350
F0.31618144888286964
s((I9
I17
tp351
I0
tp352
F-0.03969729155602762
s((I1
I3
tp353
I1
tp354
F-0.031018206338503017
s((I4
I19
tp355
I0
tp356
F0.6219239373601784
s((I1
I4
tp357
I1
tp358
F0.07539682539682542
s((I8
I8
tp359
I0
tp360
F-0.14500818330605572
s((I2
I2
tp361
I0
tp362
F0.2544832028204334
s((I2
I15
tp363
I0
tp364
F0.25401150469270356
s((I3
I12
tp365
I0
tp366
F0.17714285714285713
s((I3
I13
tp367
I1
tp368
F0.08857808857808859
s((I5
I6
tp369
I0
tp370
F0.10169491525423696
s((I7
I16
tp371
I1
tp372
F-0.1622198505869798
s((I10
I21
tp373
I1
tp374
F-0.690355329949239
s((I10
I10
tp375
I1
tp376
F-0.11462532606118135
s((I6
I18
tp377
I1
tp378
F-0.3333333333333334
s((I3
I21
tp379
I0
tp380
F0.93217665615142
s((I9
I10
tp381
I1
tp382
F-0.03993457395920136
s((I6
I3
tp383
I0
tp384
F0.07149805447470822
s((I5
I5
tp385
I1
tp386
F-0.07943925233644851
s((I2
I20
tp387
I0
tp388
F0.8561387066541707
s((I4
I9
tp389
I0
tp390
F0.1346801346801351
s((I3
I17
tp391
I1
tp392
F-0.22695035460992904
s((I10
I18
tp393
I0
tp394
F0.16656698564593306
s((I7
I5
tp395
I0
tp396
F-0.02680495689655163
s((I8
I14
tp397
I1
tp398
F-0.14639639639639618
s((I9
I9
tp399
I0
tp400
F-0.17758784425451093
s((I5
I3
tp401
I1
tp402
F-0.21281337047353785
s((I3
I18
tp403
I0
tp404
F0.49739776951672937
s((I5
I17
tp405
I0
tp406
F0.2126909518213865
s((I7
I20
tp407
I0
tp408
F0.7809741745668511
s((I3
I19
tp409
I1
tp410
F-0.3401360544217689
s((I6
I9
tp411
I0
tp412
F0.057282917966473654
s((I10
I15
tp413
I0
tp414
F-0.26915520628683715
s((I3
I10
tp415
I1
tp416
F0.2312969957378969
s((I8
I5
tp417
I0
tp418
F-0.12040260809014373
s((I1
I2
tp419
I1
tp420
F-0.051470588235294025
s((I10
I20
tp421
I1
tp422
F-0.5296296296296293
s((I5
I16
tp423
I0
tp424
F0.10836277974087169
s((I4
I6
tp425
I0
tp426
F0.1524987629886173
s((I6
I15
tp427
I0
tp428
F0.0763603109282122
s((I8
I7
tp429
I0
tp430
F-0.11507825817449266
s((I10
I12
tp431
I0
tp432
F-0.2955465587044534
s((I2
I14
tp433
I0
tp434
F0.2582456140350878
s((I5
I8
tp435
I0
tp436
F0.11378456602852517
s((I1
I1
tp437
I0
tp438
F0.3171340427744464
s((I3
I8
tp439
I0
tp440
F0.20538857297589855
s((I7
I17
tp441
I1
tp442
F-0.25087108013937287
s((I7
I3
tp443
I1
tp444
F-0.21911138161898938
s((I6
I19
tp445
I1
tp446
F-0.4017094017094018
s((I5
I4
tp447
I1
tp448
F-0.14834092387768372
s((I4
I16
tp449
I1
tp450
F-0.13452914798206272
s((I1
I7
tp451
I0
tp452
F0.3209035248538496
s((I3
I16
tp453
I1
tp454
F-0.04620123203285421
s((I1
I21
tp455
I0
tp456
F0.9448979591836735
s((I4
I8
tp457
I0
tp458
F0.1487496263823853
s((I2
I5
tp459
I1
tp460
F0.05358295674628797
s((I6
I16
tp461
I0
tp462
F0.06538895152198423
s((I5
I2
tp463
I1
tp464
F-0.2225765306122448
s((I4
I12
tp465
I1
tp466
F0.21114580831131435
s((I4
I11
tp467
I1
tp468
F0.2962605548854042
s((I2
I8
tp469
I1
tp470
F0.1227272727272725
s((I5
I18
tp471
I0
tp472
F0.42441054091539604
s((I7
I21
tp473
I0
tp474
F0.9347426470588237
s((I2
I3
tp475
I1
tp476
F-0.11131386861313883
s((I5
I19
tp477
I1
tp478
F-0.3200000000000002
s((I9
I5
tp479
I0
tp480
F-0.21739408473221322
s((I4
I15
tp481
I0
tp482
F0.16739580934837625
s((I6
I4
tp483
I0
tp484
F0.06563920996910665
s((I4
I14
tp485
I1
tp486
F0.06230910201588272
s((I2
I7
tp487
I0
tp488
F0.2537665576864753
s((I9
I21
tp489
I1
tp490
F-0.574626865671642
s((I8
I1
tp491
I0
tp492
F-0.12156138563423259
s((I6
I12
tp493
I0
tp494
F0.006451612903225787
s((I3
I7
tp495
I0
tp496
F0.194522974215743
s((I6
I14
tp497
I0
tp498
F0.07990314769975776
s((I6
I10
tp499
I1
tp500
F0.14623417358375218
s((I4
I6
tp501
I1
tp502
F-0.029504080351537964
s((I3
I9
tp503
I0
tp504
F0.20165793169595486
s((I8
I2
tp505
I1
tp506
F-0.3455528846153848
s((I6
I13
tp507
I1
tp508
F0.08949416342412451
s((I1
I13
tp509
I0
tp510
F0.21428571428571427
s((I4
I17
tp511
I1
tp512
F-0.13025210084033606
s((I8
I3
tp513
I0
tp514
F-0.11336556998830623
s((I10
I14
tp515
I0
tp516
F-0.2724550898203592
s((I6
I8
tp517
I1
tp518
F-0.006723716381418083
s((I9
I4
tp519
I1
tp520
F-0.34122042341220415
s((I4
I21
tp521
I0
tp522
F0.9411764705882346
s((I8
I4
tp523
I1
tp524
F-0.3130590339892666
s((I7
I16
tp525
I0
tp526
F-0.028685790527018022
s((I4
I20
tp527
I1
tp528
F-0.376712328767123
s((I5
I11
tp529
I1
tp530
F0.2550100200400798
s((I7
I12
tp531
I0
tp532
F-0.04182509505703427
s((I4
I13
tp533
I1
tp534
F0.12086092715231786
s((I5
I12
tp535
I0
tp536
F0.01562499999999999
s((I9
I1
tp537
I1
tp538
F-0.4563882063882064
s((I7
I10
tp539
I1
tp540
F0.08284178791453661
s((I1
I20
tp541
I0
tp542
F0.8523017902813304
s((I5
I7
tp543
I0
tp544
F0.10878274268104789
s((I7
I14
tp545
I0
tp546
F-0.0739644970414202
s((I9
I6
tp547
I0
tp548
F-0.21191680719505301
s((I3
I15
tp549
I1
tp550
F0.10179640718562882
s((I6
I7
tp551
I0
tp552
F0.06856227199890907
s((I8
I15
tp553
I0
tp554
F-0.12683846637334975
s((I6
I6
tp555
I1
tp556
F-0.0646193218170185
s((I2
I6
tp557
I0
tp558
F0.2536417588346388
s((I9
I8
tp559
I0
tp560
F-0.20944535969247632
s((I10
I8
tp561
I1
tp562
F-0.24443824750573198
s((I6
I5
tp563
I0
tp564
F0.07762047562591495
s((I6
I11
tp565
I1
tp566
F0.22614107883817444
s((I5
I21
tp567
I1
tp568
F-0.7777777777777777
s((I8
I3
tp569
I1
tp570
F-0.31611669057867114
s((I3
I6
tp571
I0
tp572
F0.2006024921265233
s((I5
I13
tp573
I0
tp574
F0.08777120315581828
s((I1
I14
tp575
I0
tp576
F0.3064594463331717
s((I5
I1
tp577
I1
tp578
F-0.2872555630478764
s((I2
I16
tp579
I0
tp580
F0.25280358859339963
s((I5
I10
tp581
I1
tp582
F0.16973612704546787
s((I8
I21
tp583
I0
tp584
F0.9452852153667047
s((I8
I20
tp585
I1
tp586
F-0.5062240663900415
s((I5
I14
tp587
I0
tp588
F0.1337579617834396
s((I9
I13
tp589
I0
tp590
F-0.2182880715022348
s((I5
I15
tp591
I1
tp592
F-0.07988980716253447
s((I8
I13
tp593
I1
tp594
F-0.003857922043368363
s((I6
I20
tp595
I0
tp596
F0.7916666666666675
s((I9
I19
tp597
I1
tp598
F-0.4761904761904759
s((I7
I15
tp599
I0
tp600
F-0.04316950102784529
s((I9
I7
tp601
I0
tp602
F-0.20263642895073794
s((I1
I17
tp603
I1
tp604
F0.12380952380952386
s((I10
I16
tp605
I1
tp606
F-0.26642759202615834
s((I7
I19
tp607
I1
tp608
F-0.4119850187265919
s((I4
I2
tp609
I0
tp610
F0.14944446298088224
s((I9
I3
tp611
I1
tp612
F-0.4161337924249866
s((I7
I8
tp613
I1
tp614
F-0.056571671629093996
s((I8
I11
tp615
I0
tp616
F-0.05116279069767438
s((I7
I9
tp617
I0
tp618
F-0.04209884075655892
s((I5
I20
tp619
I1
tp620
F-0.4492753623188407
s((I1
I5
tp621
I0
tp622
F0.32283573806881266
s((I7
I13
tp623
I1
tp624
F-0.024271844660194226
s((I10
I3
tp625
I1
tp626
F-0.41172877214416576
s((I6
I21
tp627
I0
tp628
F0.9234567901234569
s((I8
I19
tp629
I1
tp630
F-0.37540453074433633
s((I8
I12
tp631
I1
tp632
F0.04495715227422553
s((I10
I7
tp633
I0
tp634
F-0.30815435020022075
s((I1
I15
tp635
I0
tp636
F0.28599221789883333
s((I7
I11
tp637
I0
tp638
F0.022801302931596074
s((I10
I6
tp639
I1
tp640
F-0.31594488188976344
s((I10
I1
tp641
I1
tp642
F-0.4991263832265583
s((I9
I14
tp643
I0
tp644
F-0.27544910179640725
s((I2
I19
tp645
I0
tp646
F0.6981869889797372
s((I7
I2
tp647
I1
tp648
F-0.32325724861196814
s((I1
I11
tp649
I1
tp650
F0.4356525693497042
s((I1
I12
tp651
I1
tp652
F0.35543637250121896
s((I10
I17
tp653
I0
tp654
F-0.15098516714633606
s((I10
I5
tp655
I0
tp656
F-0.2906684639421615
s((I7
I6
tp657
I0
tp658
F-0.024987719010971115
s((I8
I17
tp659
I0
tp660
F0.04544857480625257
s((I3
I5
tp661
I1
tp662
F-0.08481613285883738
s((I7
I7
tp663
I1
tp664
F-0.13222667429879764
s((I9
I15
tp665
I1
tp666
F-0.15172315172315148
s((I1
I9
tp667
I1
tp668
F0.2956705385427666
s((I1
I16
tp669
I1
tp670
F-0.025423728813559317
s((I9
I12
tp671
I0
tp672
F-0.2145270270270267
s((I9
I2
tp673
I1
tp674
F-0.4236874236874238
s((I8
I18
tp675
I1
tp676
F-0.3112745098039215
s((I2
I9
tp677
I1
tp678
F0.2085257890685144
s((I4
I1
tp679
I0
tp680
F0.14581576550747144
s((I6
I2
tp681
I0
tp682
F0.07422411425432558
s((I8
I10
tp683
I0
tp684
F-0.0866050808314088
s((I10
I11
tp685
I0
tp686
F-0.3372093023255812
s((I2
I13
tp687
I0
tp688
F0.19170984455958556
s((I4
I18
tp689
I0
tp690
F0.4575854438160807
s((I9
I20
tp691
I1
tp692
F-0.6415929203539824
s((I1
I6
tp693
I0
tp694
F0.31657979219165305
s((I6
I12
tp695
I1
tp696
F0.17420814479638025
s((I1
I18
tp697
I0
tp698
F0.5793650793650797
s((I8
I6
tp699
I1
tp700
F-0.26838432635534065
s((I6
I1
tp701
I1
tp702
F-0.2777777777777778
s((I4
I3
tp703
I0
tp704
F0.16090759794885567
s((I9
I16
tp705
I0
tp706
F-0.22596153846153838
s((I9
I17
tp707
I1
tp708
F-0.26737967914438504
s((I3
I2
tp709
I1
tp710
F-0.18205631958087765
s((I1
I4
tp711
I0
tp712
F0.3244010524858056
s((I3
I3
tp713
I0
tp714
F0.20197817189631542
s((I1
I10
tp715
I1
tp716
F0.3385524043015542
s((I8
I8
tp717
I1
tp718
F-0.12268718084753688
s((I2
I18
tp719
I0
tp720
F0.5266853932584257
s((I3
I4
tp721
I1
tp722
F-0.06909547738693461
s((I10
I4
tp723
I0
tp724
F-0.29532916513424123
s((I1
I8
tp725
I1
tp726
F0.19266055045871558
s((I8
I16
tp727
I0
tp728
F-0.13591793634032243
s((I10
I21
tp729
I0
tp730
F0.9365600218758539
s((I2
I17
tp731
I1
tp732
F-0.16517857142857154
s((I4
I7
tp733
I1
tp734
F-0.011138613861386136
s((I3
I21
tp735
I1
tp736
F-0.4117647058823529
s((I9
I10
tp737
I0
tp738
F-0.19566526189042766
s((I4
I10
tp739
I0
tp740
F0.14990102573330977
s((I10
I2
tp741
I0
tp742
F-0.2990021719286102
s((I2
I20
tp743
I1
tp744
F-0.4634146341463412
s((I7
I1
tp745
I0
tp746
F-0.020598938336727424
s((I10
I18
tp747
I1
tp748
F-0.3965517241379312
s((I9
I18
tp749
I1
tp750
F-0.37696335078534016
s((I7
I5
tp751
I1
tp752
F-0.23793395427603733
s((I9
I9
tp753
I1
tp754
F-0.12836868123106351
s((I3
I14
tp755
I1
tp756
F0.1148915187376726
s((I5
I17
tp757
I1
tp758
F-0.09677419354838712
s((I2
I12
tp759
I0
tp760
F0.2700000000000002
s((I1
I19
tp761
I0
tp762
F0.7307692307692316
s((I3
I10
tp763
I0
tp764
F0.18875502008032105
s((I5
I9
tp765
I0
tp766
F0.0994622723330447
s((I6
I3
tp767
I1
tp768
F-0.22258273848150556
s((I10
I9
tp769
I1
tp770
F-0.19645362548135772
s((I1
I2
tp771
I0
tp772
F0.3111274561311318
s((I2
I11
tp773
I1
tp774
F0.3598042905532559
s((I6
I17
tp775
I1
tp776
F-0.2818181818181819
s((I2
I10
tp777
I0
tp778
F0.25399168120220184
s((I10
I13
tp779
I0
tp780
F-0.22834645669291365
s((I10
I12
tp781
I1
tp782
F-0.06931265910668787
s((I2
I14
tp783
I1
tp784
F0.09650349650349638
s((I1
I1
tp785
I1
tp786
F-0.11609498680738803
s((I10
I15
tp787
I1
tp788
F-0.20489199491740712
s((I6
I19
tp789
I0
tp790
F0.6035120147874304
s((I3
I20
tp791
I1
tp792
F-0.4838709677419354
s((I3
I1
tp793
I0
tp794
F0.19278364849833168
s((I5
I4
tp795
I0
tp796
F0.10541330364597779
s((I2
I1
tp797
I1
tp798
F-0.1711229946524064
s((I2
I21
tp799
I1
tp800
F-0.6875000000000001
s((I1
I7
tp801
I1
tp802
F0.14613911933631157
s((I9
I11
tp803
I0
tp804
F-0.22519083969465642
s((I3
I16
tp805
I0
tp806
F0.18217821782178242
s((I1
I21
tp807
I1
tp808
F-0.64
s((I10
I19
tp809
I1
tp810
F-0.49038461538461514
s((I4
I8
tp811
I1
tp812
F0.06274007682458382
s((I2
I5
tp813
I0
tp814
F0.2642169728783897
s((I2
I2
tp815
I1
tp816
F-0.14228723404255317
s((I7
I4
tp817
I1
tp818
F-0.17149478563151804
s((I6
I16
tp819
I1
tp820
F-0.10189573459715631
s((I5
I2
tp821
I0
tp822
F0.11097312773810766
s((I4
I11
tp823
I0
tp824
F0.16176470588235292
s((I4
I5
tp825
I1
tp826
F-0.08252427184466025
s((I7
I21
tp827
I1
tp828
F-0.540983606557377
s((I2
I3
tp829
I0
tp830
F0.25082530949106024
s((I4
I4
tp831
I0
tp832
F0.15914585012087068
s((I7
I18
tp833
I1
tp834
F-0.3424124513618677
s((I9
I5
tp835
I1
tp836
F-0.31758241758241734
s((I6
I4
tp837
I1
tp838
F-0.15933412604042815
s((I3
I11
tp839
I0
tp840
F0.2756756756756756
s.